target datalayout = "e-m:e-p270:32:32-p271:32:32-p272:64:64-i64:64-i128:128-f80:128-n8:16:32:64-S128"
target triple = "x86_64-pc-linux-gnu"

%struct.rsa_st = type { i32, ptr, i32, ptr, ptr, ptr, ptr, ptr, ptr, ptr, ptr, ptr, ptr, %struct.rsa_pss_params_30_st, ptr, ptr, %struct.crypto_ex_data_st, %struct.CRYPTO_REF_COUNT, i32, ptr, ptr, ptr, ptr, ptr, ptr, i32 }
%struct.rsa_pss_params_30_st = type { i32, %struct.anon, i32, i32 }
%struct.anon = type { i32, i32 }
%struct.crypto_ex_data_st = type { ptr, ptr }
%struct.CRYPTO_REF_COUNT = type { i32 }

; Function Attrs: nounwind uwtable
define internal i32 @rsa_cb(i32 noundef %0, ptr noundef %1, ptr noundef %2, ptr noundef %3) #0 {
  %5 = alloca i32, align 4
  %6 = alloca i32, align 4
  %7 = alloca ptr, align 8
  %8 = alloca ptr, align 8
  %9 = alloca ptr, align 8
  store i32 %0, ptr %6, align 4, !tbaa !22
  store ptr %1, ptr %7, align 8, !tbaa !24
  store ptr %2, ptr %8, align 8, !tbaa !26
  store ptr %3, ptr %9, align 8, !tbaa !28
  %10 = load i32, ptr %6, align 4, !tbaa !22
  %11 = icmp eq i32 %10, 0
  br i1 %11, label %12, label %20

12:                                               ; preds = %4
  %13 = call ptr @RSA_new()
  %14 = load ptr, ptr %7, align 8, !tbaa !24
  store ptr %13, ptr %14, align 8, !tbaa !29
  %15 = load ptr, ptr %7, align 8, !tbaa !24
  %16 = load ptr, ptr %15, align 8, !tbaa !29
  %17 = icmp ne ptr %16, null
  br i1 %17, label %18, label %19

18:                                               ; preds = %12
  store i32 2, ptr %5, align 4
  br label %46

19:                                               ; preds = %12
  store i32 0, ptr %5, align 4
  br label %46

20:                                               ; preds = %4
  %21 = load i32, ptr %6, align 4, !tbaa !22
  %22 = icmp eq i32 %21, 2
  br i1 %22, label %23, label %27

23:                                               ; preds = %20
  %24 = load ptr, ptr %7, align 8, !tbaa !24
  %25 = load ptr, ptr %24, align 8, !tbaa !29
  call void @RSA_free(ptr noundef %25)
  %26 = load ptr, ptr %7, align 8, !tbaa !24
  store ptr null, ptr %26, align 8, !tbaa !29
  store i32 2, ptr %5, align 4
  br label %46

27:                                               ; preds = %20
  %28 = load i32, ptr %6, align 4, !tbaa !22
  %29 = icmp eq i32 %28, 5
  br i1 %29, label %30, label %43

30:                                               ; preds = %27
  %31 = load ptr, ptr %7, align 8, !tbaa !24
  %32 = load ptr, ptr %31, align 8, !tbaa !29
  %33 = getelementptr inbounds nuw %struct.rsa_st, ptr %32, i32 0, i32 2
  %34 = load i32, ptr %33, align 8, !tbaa !31
  %35 = icmp ne i32 %34, 1
  br i1 %35, label %36, label %37

36:                                               ; preds = %30
  store i32 1, ptr %5, align 4
  br label %46

37:                                               ; preds = %30
  %38 = load ptr, ptr %7, align 8, !tbaa !24
  %39 = load ptr, ptr %38, align 8, !tbaa !29
  %40 = call i32 @ossl_rsa_multip_calc_product(ptr noundef %39)
  %41 = icmp eq i32 %40, 1
  %42 = select i1 %41, i32 2, i32 0
  store i32 %42, ptr %5, align 4
  br label %46

43:                                               ; preds = %27
  br label %44

44:                                               ; preds = %43
  br label %45

45:                                               ; preds = %44
  store i32 1, ptr %5, align 4
  br label %46

46:                                               ; preds = %45, %37, %36, %23, %19, %18
  %47 = load i32, ptr %5, align 4
  ret i32 %47
}