; Function Attrs: nounwind uwtable
define internal range(i32 0, 3) i32 @rsa_cb(i32 noundef %0, ptr noundef captures(none) %1, ptr readnone captures(none) %2, ptr readnone captures(none) %3) #1 {
  switch i32 %0, label %17 [
    i32 0, label %5
    i32 2, label %7
    i32 5, label %9
  ]

5:                                                ; preds = %4
  %6 = tail call ptr @RSA_new() #3
  store ptr %6, ptr %1, align 8, !tbaa !3
  %.not10 = icmp eq ptr %6, null
  %. = select i1 %.not10, i32 0, i32 2
  br label %17

7:                                                ; preds = %4
  %8 = load ptr, ptr %1, align 8, !tbaa !3
  tail call void @RSA_free(ptr noundef %8) #3
  store ptr null, ptr %1, align 8, !tbaa !3
  br label %17

9:                                                ; preds = %4
  %10 = load ptr, ptr %1, align 8, !tbaa !3
  %11 = getelementptr inbounds nuw i8, ptr %10, i64 16
  %12 = load i32, ptr %11, align 8, !tbaa !8
  %.not = icmp eq i32 %12, 1
  br i1 %.not, label %13, label %17

13:                                               ; preds = %9
  %14 = tail call i32 @ossl_rsa_multip_calc_product(ptr noundef nonnull %10) #3
  %15 = icmp eq i32 %14, 1
  %16 = select i1 %15, i32 2, i32 0
  br label %17

17:                                               ; preds = %4, %9, %5, %13, %7
  %.0 = phi i32 [ 2, %7 ], [ %16, %13 ], [ %., %5 ], [ 1, %9 ], [ 1, %4 ]
  ret i32 %.0
}